target datalayout = "e-m:e-p270:32:32-p271:32:32-p272:64:64-i64:64-i128:128-f80:128-n8:16:32:64-S128"
target triple = "x86_64-unknown-linux-gnu"

%"class.sat::binspr" = type <{ ptr, %class.scoped_ptr.38, i32, i32, %class.vector.39, i32, i32, %class.svector.14, %class.svector.14, %class.svector.26, %class.svector.26, i32, i32, i32, i32, i32, [4 x i32], [5 x i32], [5 x i32], [4 x i8] }>
%class.scoped_ptr.38 = type { ptr }
%class.vector.39 = type { ptr }
%class.svector.14 = type { %class.vector.15 }
%class.vector.15 = type { ptr }
%class.svector.26 = type { %class.vector.27 }
%class.vector.27 = type { ptr }

@.str.4 = private unnamed_addr constant [2 x i8] c"\0A\00", align 1
@.str.8 = private unnamed_addr constant [2 x i8] c" \00", align 1
@.str.11 = private unnamed_addr constant [4 x i8] c" - \00", align 1

; Function Attrs: mustprogress uwtable
define hidden noundef nonnull align 8 dereferenceable(8) ptr @_ZNK3sat6binspr12display_maskERSoj(ptr noundef nonnull align 8 dereferenceable(148) %this, ptr noundef nonnull align 8 dereferenceable(8) %out, i32 noundef %mask) #5 align 2 {
entry:
  %this.addr = alloca ptr, align 8
  %out.addr = alloca ptr, align 8
  %mask.addr = alloca i32, align 4
  %i = alloca i32, align 4
  %i4 = alloca i32, align 4
  store ptr %this, ptr %this.addr, align 8
  store ptr %out, ptr %out.addr, align 8
  store i32 %mask, ptr %mask.addr, align 4
  %this1 = load ptr, ptr %this.addr, align 8
  store i32 0, ptr %i, align 4
  br label %for.cond

for.cond:                                         ; preds = %for.inc, %entry
  %0 = load i32, ptr %i, align 4
  %cmp = icmp ult i32 %0, 4
  br i1 %cmp, label %for.body, label %for.end

for.body:                                         ; preds = %for.cond
  %1 = load ptr, ptr %out.addr, align 8
  %m_vals = getelementptr inbounds %"class.sat::binspr", ptr %this1, i32 0, i32 16
  %2 = load i32, ptr %i, align 4
  %idxprom = zext i32 %2 to i64
  %arrayidx = getelementptr inbounds [4 x i32], ptr %m_vals, i64 0, i64 %idxprom
  %3 = load i32, ptr %arrayidx, align 4
  %call = call noundef nonnull align 8 dereferenceable(8) ptr @_ZlsRSo5lbool(ptr noundef nonnull align 8 dereferenceable(8) %1, i32 noundef %3)
  %call2 = call noundef nonnull align 8 dereferenceable(8) ptr @_ZStlsISt11char_traitsIcEERSt13basic_ostreamIcT_ES5_PKc(ptr noundef nonnull align 8 dereferenceable(8) %call, ptr noundef @.str.8)
  br label %for.inc

for.inc:                                          ; preds = %for.body
  %4 = load i32, ptr %i, align 4
  %inc = add i32 %4, 1
  store i32 %inc, ptr %i, align 4
  br label %for.cond, !llvm.loop !13

for.end:                                          ; preds = %for.cond
  %5 = load ptr, ptr %out.addr, align 8
  %call3 = call noundef nonnull align 8 dereferenceable(8) ptr @_ZStlsISt11char_traitsIcEERSt13basic_ostreamIcT_ES5_PKc(ptr noundef nonnull align 8 dereferenceable(8) %5, ptr noundef @.str.11)
  store i32 0, ptr %i4, align 4
  br label %for.cond5

for.cond5:                                        ; preds = %for.inc10, %for.end
  %6 = load i32, ptr %i4, align 4
  %cmp6 = icmp ult i32 %6, 32
  br i1 %cmp6, label %for.body7, label %for.end12

for.body7:                                        ; preds = %for.cond5
  %7 = load ptr, ptr %out.addr, align 8
  %8 = load i32, ptr %mask.addr, align 4
  %9 = load i32, ptr %i4, align 4
  %shl = shl i32 1, %9
  %and = and i32 %8, %shl
  %cmp8 = icmp ne i32 0, %and
  %cond = select i1 %cmp8, i32 1, i32 0
  %call9 = call noundef nonnull align 8 dereferenceable(8) ptr @_ZNSolsEi(ptr noundef nonnull align 8 dereferenceable(8) %7, i32 noundef %cond)
  br label %for.inc10

for.inc10:                                        ; preds = %for.body7
  %10 = load i32, ptr %i4, align 4
  %inc11 = add i32 %10, 1
  store i32 %inc11, ptr %i4, align 4
  br label %for.cond5, !llvm.loop !14

for.end12:                                        ; preds = %for.cond5
  %11 = load ptr, ptr %out.addr, align 8
  %call13 = call noundef nonnull align 8 dereferenceable(8) ptr @_ZStlsISt11char_traitsIcEERSt13basic_ostreamIcT_ES5_PKc(ptr noundef nonnull align 8 dereferenceable(8) %11, ptr noundef @.str.4)
  ret ptr %call13
}