; Function Attrs: mustprogress uwtable
define hidden noundef nonnull align 8 dereferenceable(8) ptr @_ZNK3sat6binspr12display_maskERSoj(ptr nocapture noundef nonnull readonly align 8 dereferenceable(148) %this, ptr noundef nonnull align 8 dereferenceable(8) %out, i32 noundef %mask) local_unnamed_addr #3 align 2 {
entry:
  %m_vals = getelementptr inbounds i8, ptr %this, i64 92
  br label %for.body

for.body:                                         ; preds = %entry, %for.body
  %indvars.iv = phi i64 [ 0, %entry ], [ %indvars.iv.next, %for.body ]
  %arrayidx = getelementptr inbounds [4 x i32], ptr %m_vals, i64 0, i64 %indvars.iv
  %0 = load i32, ptr %arrayidx, align 4
  %call = tail call noundef nonnull align 8 dereferenceable(8) ptr @_ZlsRSo5lbool(ptr noundef nonnull align 8 dereferenceable(8) %out, i32 noundef %0)
  %call2 = tail call noundef nonnull align 8 dereferenceable(8) ptr @_ZStlsISt11char_traitsIcEERSt13basic_ostreamIcT_ES5_PKc(ptr noundef nonnull align 8 dereferenceable(8) %call, ptr noundef nonnull @.str.8)
  %indvars.iv.next = add nuw nsw i64 %indvars.iv, 1
  %exitcond.not = icmp eq i64 %indvars.iv.next, 4
  br i1 %exitcond.not, label %for.end, label %for.body, !llvm.loop !18

for.end:                                          ; preds = %for.body
  %call3 = tail call noundef nonnull align 8 dereferenceable(8) ptr @_ZStlsISt11char_traitsIcEERSt13basic_ostreamIcT_ES5_PKc(ptr noundef nonnull align 8 dereferenceable(8) %out, ptr noundef nonnull @.str.11)
  br label %for.body7

for.body7:                                        ; preds = %for.end, %for.body7
  %i4.09 = phi i32 [ 0, %for.end ], [ %inc11, %for.body7 ]
  %1 = lshr i32 %mask, %i4.09
  %cond = and i32 %1, 1
  %call9 = tail call noundef nonnull align 8 dereferenceable(8) ptr @_ZNSolsEi(ptr noundef nonnull align 8 dereferenceable(8) %out, i32 noundef %cond)
  %inc11 = add nuw nsw i32 %i4.09, 1
  %exitcond11.not = icmp eq i32 %inc11, 32
  br i1 %exitcond11.not, label %for.end12, label %for.body7, !llvm.loop !19

for.end12:                                        ; preds = %for.body7
  %call13 = tail call noundef nonnull align 8 dereferenceable(8) ptr @_ZStlsISt11char_traitsIcEERSt13basic_ostreamIcT_ES5_PKc(ptr noundef nonnull align 8 dereferenceable(8) %out, ptr noundef nonnull @.str.4)
  ret ptr %call13
}